target datalayout = "e-m:e-p270:32:32-p271:32:32-p272:64:64-i64:64-i128:128-f80:128-n8:16:32:64-S128"
target triple = "x86_64-pc-linux-gnu"

%struct._zend_refcounted_h = type { i32, %union.anon }
%union.anon = type { i32 }
%struct.url_adapt_state_ex_t = type { %struct.smart_str, %struct.smart_str, %struct.smart_str, %struct.smart_str, %struct.smart_str, %struct.smart_str, %struct.smart_str, i32, ptr, i32, i32, %struct.smart_str, i32, i32, ptr }
%struct.smart_str = type { ptr, i64 }
%struct._zend_string = type { %struct._zend_refcounted_h, i64, i64, [1 x i8] }

@.str.14 = private unnamed_addr constant [5 x i8] c"form\00", align 1

; Function Attrs: nounwind uwtable
define internal void @handle_tag(ptr noundef %0, ptr noundef %1, ptr noundef %2) #0 {
  %4 = alloca ptr, align 8
  %5 = alloca ptr, align 8
  %6 = alloca ptr, align 8
  %7 = alloca i64, align 8
  %8 = alloca ptr, align 8
  %9 = alloca ptr, align 8
  %10 = alloca i64, align 8
  %11 = alloca i8, align 1
  %12 = alloca ptr, align 8
  %13 = alloca ptr, align 8
  %14 = alloca i64, align 8
  %15 = alloca i8, align 1
  %16 = alloca i64, align 8
  %17 = alloca ptr, align 8
  %18 = alloca ptr, align 8
  %19 = alloca i64, align 8
  %20 = alloca ptr, align 8
  %21 = alloca ptr, align 8
  %22 = alloca ptr, align 8
  %23 = alloca i32, align 4
  %24 = alloca i32, align 4
  store ptr %0, ptr %20, align 8
  store ptr %1, ptr %21, align 8
  store ptr %2, ptr %22, align 8
  store i32 0, ptr %23, align 4
  %25 = load ptr, ptr %20, align 8
  %26 = getelementptr inbounds %struct.url_adapt_state_ex_t, ptr %25, i32 0, i32 0
  %27 = getelementptr inbounds %struct.smart_str, ptr %26, i32 0, i32 0
  %28 = load ptr, ptr %27, align 8
  %29 = icmp ne ptr %28, null
  br i1 %29, label %30, label %36

30:                                               ; preds = %3
  %31 = load ptr, ptr %20, align 8
  %32 = getelementptr inbounds %struct.url_adapt_state_ex_t, ptr %31, i32 0, i32 0
  %33 = getelementptr inbounds %struct.smart_str, ptr %32, i32 0, i32 0
  %34 = load ptr, ptr %33, align 8
  %35 = getelementptr inbounds %struct._zend_string, ptr %34, i32 0, i32 2
  store i64 0, ptr %35, align 8
  br label %36

36:                                               ; preds = %30, %3
  %37 = load ptr, ptr %20, align 8
  %38 = getelementptr inbounds %struct.url_adapt_state_ex_t, ptr %37, i32 0, i32 0
  %39 = load ptr, ptr %21, align 8
  %40 = load ptr, ptr %22, align 8
  %41 = load ptr, ptr %21, align 8
  %42 = ptrtoint ptr %40 to i64
  %43 = ptrtoint ptr %41 to i64
  %44 = sub i64 %42, %43
  store ptr %38, ptr %17, align 8
  store ptr %39, ptr %18, align 8
  store i64 %44, ptr %19, align 8
  %45 = load ptr, ptr %17, align 8
  %46 = load ptr, ptr %18, align 8
  %47 = load i64, ptr %19, align 8
  store ptr %45, ptr %12, align 8
  store ptr %46, ptr %13, align 8
  store i64 %47, ptr %14, align 8
  store i8 0, ptr %15, align 1
  %48 = load ptr, ptr %12, align 8
  %49 = load i64, ptr %14, align 8
  %50 = load i8, ptr %15, align 1
  %51 = trunc i8 %50 to i1
  store ptr %48, ptr %9, align 8
  store i64 %49, ptr %10, align 8
  %52 = zext i1 %51 to i8
  store i8 %52, ptr %11, align 1
  %53 = load ptr, ptr %9, align 8
  %54 = load ptr, ptr %53, align 8
  %55 = icmp ne ptr %54, null
  %56 = xor i1 %55, true
  br i1 %56, label %57, label %58

57:                                               ; preds = %36
  br label %71

58:                                               ; preds = %36
  %59 = load ptr, ptr %9, align 8
  %60 = load ptr, ptr %59, align 8
  %61 = getelementptr inbounds %struct._zend_string, ptr %60, i32 0, i32 2
  %62 = load i64, ptr %61, align 8
  %63 = load i64, ptr %10, align 8
  %64 = add i64 %63, %62
  store i64 %64, ptr %10, align 8
  %65 = load i64, ptr %10, align 8
  %66 = load ptr, ptr %9, align 8
  %67 = getelementptr inbounds %struct.smart_str, ptr %66, i32 0, i32 1
  %68 = load i64, ptr %67, align 8
  %69 = icmp uge i64 %65, %68
  br i1 %69, label %70, label %81

70:                                               ; preds = %58
  br label %71

71:                                               ; preds = %70, %57
  %72 = load i8, ptr %11, align 1
  %73 = trunc i8 %72 to i1
  br i1 %73, label %74, label %77

74:                                               ; preds = %71
  %75 = load ptr, ptr %9, align 8
  %76 = load i64, ptr %10, align 8
  call void @smart_str_realloc(ptr noundef %75, i64 noundef %76) #10
  br label %80

77:                                               ; preds = %71
  %78 = load ptr, ptr %9, align 8
  %79 = load i64, ptr %10, align 8
  call void @smart_str_erealloc(ptr noundef %78, i64 noundef %79) #10
  br label %80

80:                                               ; preds = %77, %74
  br label %81

81:                                               ; preds = %80, %58
  %82 = load i64, ptr %10, align 8
  store i64 %82, ptr %16, align 8
  %83 = load ptr, ptr %12, align 8
  %84 = load ptr, ptr %83, align 8
  %85 = getelementptr inbounds %struct._zend_string, ptr %84, i32 0, i32 3
  %86 = load ptr, ptr %12, align 8
  %87 = load ptr, ptr %86, align 8
  %88 = getelementptr inbounds %struct._zend_string, ptr %87, i32 0, i32 2
  %89 = load i64, ptr %88, align 8
  %90 = getelementptr inbounds i8, ptr %85, i64 %89
  %91 = load ptr, ptr %13, align 8
  %92 = load i64, ptr %14, align 8
  call void @llvm.memcpy.p0.p0.i64(ptr align 1 %90, ptr align 1 %91, i64 %92, i1 false)
  %93 = load i64, ptr %16, align 8
  %94 = load ptr, ptr %12, align 8
  %95 = load ptr, ptr %94, align 8
  %96 = getelementptr inbounds %struct._zend_string, ptr %95, i32 0, i32 2
  store i64 %93, ptr %96, align 8
  store i32 0, ptr %24, align 4
  br label %97

97:                                               ; preds = %128, %81
  %98 = load i32, ptr %24, align 4
  %99 = zext i32 %98 to i64
  %100 = load ptr, ptr %20, align 8
  %101 = getelementptr inbounds %struct.url_adapt_state_ex_t, ptr %100, i32 0, i32 0
  %102 = getelementptr inbounds %struct.smart_str, ptr %101, i32 0, i32 0
  %103 = load ptr, ptr %102, align 8
  %104 = getelementptr inbounds %struct._zend_string, ptr %103, i32 0, i32 2
  %105 = load i64, ptr %104, align 8
  %106 = icmp ult i64 %99, %105
  br i1 %106, label %107, label %131

107:                                              ; preds = %97
  %108 = load ptr, ptr %20, align 8
  %109 = getelementptr inbounds %struct.url_adapt_state_ex_t, ptr %108, i32 0, i32 0
  %110 = getelementptr inbounds %struct.smart_str, ptr %109, i32 0, i32 0
  %111 = load ptr, ptr %110, align 8
  %112 = getelementptr inbounds %struct._zend_string, ptr %111, i32 0, i32 3
  %113 = load i32, ptr %24, align 4
  %114 = zext i32 %113 to i64
  %115 = getelementptr inbounds [1 x i8], ptr %112, i64 0, i64 %114
  %116 = load i8, ptr %115, align 1
  %117 = zext i8 %116 to i32
  %118 = call i32 @tolower(i32 noundef %117) #11
  %119 = trunc i32 %118 to i8
  %120 = load ptr, ptr %20, align 8
  %121 = getelementptr inbounds %struct.url_adapt_state_ex_t, ptr %120, i32 0, i32 0
  %122 = getelementptr inbounds %struct.smart_str, ptr %121, i32 0, i32 0
  %123 = load ptr, ptr %122, align 8
  %124 = getelementptr inbounds %struct._zend_string, ptr %123, i32 0, i32 3
  %125 = load i32, ptr %24, align 4
  %126 = zext i32 %125 to i64
  %127 = getelementptr inbounds [1 x i8], ptr %124, i64 0, i64 %126
  store i8 %119, ptr %127, align 1
  br label %128

128:                                              ; preds = %107
  %129 = load i32, ptr %24, align 4
  %130 = add i32 %129, 1
  store i32 %130, ptr %24, align 4
  br label %97

131:                                              ; preds = %97
  %132 = load ptr, ptr %20, align 8
  %133 = getelementptr inbounds %struct.url_adapt_state_ex_t, ptr %132, i32 0, i32 14
  %134 = load ptr, ptr %133, align 8
  %135 = load ptr, ptr %20, align 8
  %136 = getelementptr inbounds %struct.url_adapt_state_ex_t, ptr %135, i32 0, i32 0
  %137 = getelementptr inbounds %struct.smart_str, ptr %136, i32 0, i32 0
  %138 = load ptr, ptr %137, align 8
  %139 = getelementptr inbounds %struct._zend_string, ptr %138, i32 0, i32 3
  %140 = getelementptr inbounds [1 x i8], ptr %139, i64 0, i64 0
  %141 = load ptr, ptr %20, align 8
  %142 = getelementptr inbounds %struct.url_adapt_state_ex_t, ptr %141, i32 0, i32 0
  %143 = getelementptr inbounds %struct.smart_str, ptr %142, i32 0, i32 0
  %144 = load ptr, ptr %143, align 8
  %145 = getelementptr inbounds %struct._zend_string, ptr %144, i32 0, i32 2
  %146 = load i64, ptr %145, align 8
  store ptr %134, ptr %5, align 8
  store ptr %140, ptr %6, align 8
  store i64 %146, ptr %7, align 8
  %147 = load ptr, ptr %5, align 8
  %148 = load ptr, ptr %6, align 8
  %149 = load i64, ptr %7, align 8
  %150 = call ptr @zend_hash_str_find(ptr noundef %147, ptr noundef %148, i64 noundef %149) #10
  store ptr %150, ptr %8, align 8
  %151 = load ptr, ptr %8, align 8
  %152 = icmp ne ptr %151, null
  br i1 %152, label %153, label %159

153:                                              ; preds = %131
  %154 = load ptr, ptr %8, align 8
  %155 = load ptr, ptr %154, align 8
  %156 = icmp ne ptr %155, null
  call void @llvm.assume(i1 %156)
  %157 = load ptr, ptr %8, align 8
  %158 = load ptr, ptr %157, align 8
  store ptr %158, ptr %4, align 8
  br label %160

159:                                              ; preds = %131
  store ptr null, ptr %4, align 8
  br label %160

160:                                              ; preds = %159, %153
  %161 = load ptr, ptr %4, align 8
  %162 = load ptr, ptr %20, align 8
  %163 = getelementptr inbounds %struct.url_adapt_state_ex_t, ptr %162, i32 0, i32 8
  store ptr %161, ptr %163, align 8
  %164 = icmp ne ptr %161, null
  br i1 %164, label %165, label %195

165:                                              ; preds = %160
  store i32 1, ptr %23, align 4
  %166 = load ptr, ptr %20, align 8
  %167 = getelementptr inbounds %struct.url_adapt_state_ex_t, ptr %166, i32 0, i32 0
  %168 = getelementptr inbounds %struct.smart_str, ptr %167, i32 0, i32 0
  %169 = load ptr, ptr %168, align 8
  %170 = getelementptr inbounds %struct._zend_string, ptr %169, i32 0, i32 2
  %171 = load i64, ptr %170, align 8
  %172 = icmp eq i64 %171, 4
  br i1 %172, label %173, label %191

173:                                              ; preds = %165
  %174 = load ptr, ptr %20, align 8
  %175 = getelementptr inbounds %struct.url_adapt_state_ex_t, ptr %174, i32 0, i32 0
  %176 = getelementptr inbounds %struct.smart_str, ptr %175, i32 0, i32 0
  %177 = load ptr, ptr %176, align 8
  %178 = getelementptr inbounds %struct._zend_string, ptr %177, i32 0, i32 3
  %179 = getelementptr inbounds [1 x i8], ptr %178, i64 0, i64 0
  %180 = load ptr, ptr %20, align 8
  %181 = getelementptr inbounds %struct.url_adapt_state_ex_t, ptr %180, i32 0, i32 0
  %182 = getelementptr inbounds %struct.smart_str, ptr %181, i32 0, i32 0
  %183 = load ptr, ptr %182, align 8
  %184 = getelementptr inbounds %struct._zend_string, ptr %183, i32 0, i32 2
  %185 = load i64, ptr %184, align 8
  %186 = call i32 @strncasecmp(ptr noundef %179, ptr noundef @.str.14, i64 noundef %185) #11
  %187 = icmp ne i32 %186, 0
  br i1 %187, label %191, label %188

188:                                              ; preds = %173
  %189 = load ptr, ptr %20, align 8
  %190 = getelementptr inbounds %struct.url_adapt_state_ex_t, ptr %189, i32 0, i32 12
  store i32 1, ptr %190, align 8
  br label %194

191:                                              ; preds = %173, %165
  %192 = load ptr, ptr %20, align 8
  %193 = getelementptr inbounds %struct.url_adapt_state_ex_t, ptr %192, i32 0, i32 12
  store i32 0, ptr %193, align 8
  br label %194

194:                                              ; preds = %191, %188
  br label %195

195:                                              ; preds = %194, %160
  %196 = load i32, ptr %23, align 4
  %197 = icmp ne i32 %196, 0
  %198 = select i1 %197, i32 2, i32 0
  %199 = load ptr, ptr %20, align 8
  %200 = getelementptr inbounds %struct.url_adapt_state_ex_t, ptr %199, i32 0, i32 9
  store i32 %198, ptr %200, align 8
  ret void
}