; Function Attrs: nounwind uwtable
define internal fastcc void @handle_tag(ptr noundef %0, ptr noundef %1, ptr noundef %2) unnamed_addr #0 {
  %4 = load ptr, ptr %0, align 8
  %.not = icmp eq ptr %4, null
  br i1 %.not, label %.thread, label %8

.thread:                                          ; preds = %3
  %5 = ptrtoint ptr %2 to i64
  %6 = ptrtoint ptr %1 to i64
  %7 = sub i64 %5, %6
  br label %19

8:                                                ; preds = %3
  %9 = getelementptr inbounds i8, ptr %4, i64 16
  store i64 0, ptr %9, align 8
  %.pr = load ptr, ptr %0, align 8
  %10 = ptrtoint ptr %2 to i64
  %11 = ptrtoint ptr %1 to i64
  %12 = sub i64 %10, %11
  %.not63 = icmp eq ptr %.pr, null
  br i1 %.not63, label %19, label %13

13:                                               ; preds = %8
  %14 = getelementptr inbounds i8, ptr %.pr, i64 16
  %15 = load i64, ptr %14, align 8
  %16 = add i64 %15, %12
  %17 = getelementptr inbounds i8, ptr %0, i64 8
  %18 = load i64, ptr %17, align 8
  %.not64 = icmp ult i64 %16, %18
  br i1 %.not64, label %21, label %19

19:                                               ; preds = %.thread, %8, %13
  %20 = phi i64 [ %12, %8 ], [ %12, %13 ], [ %7, %.thread ]
  %.055 = phi i64 [ %12, %8 ], [ %16, %13 ], [ %7, %.thread ]
  tail call void @smart_str_erealloc(ptr noundef nonnull %0, i64 noundef %.055) #16
  %.pre = load ptr, ptr %0, align 8
  %.phi.trans.insert = getelementptr inbounds i8, ptr %.pre, i64 16
  %.pre79 = load i64, ptr %.phi.trans.insert, align 8
  br label %21

21:                                               ; preds = %19, %13
  %22 = phi i64 [ %.pre79, %19 ], [ %15, %13 ]
  %23 = phi ptr [ %.pre, %19 ], [ %.pr, %13 ]
  %24 = phi i64 [ %20, %19 ], [ %12, %13 ]
  %.1 = phi i64 [ %.055, %19 ], [ %16, %13 ]
  %25 = getelementptr inbounds i8, ptr %23, i64 24
  %26 = getelementptr inbounds i8, ptr %25, i64 %22
  tail call void @llvm.memcpy.p0.p0.i64(ptr nonnull align 1 %26, ptr align 1 %1, i64 %24, i1 false)
  %27 = load ptr, ptr %0, align 8
  %28 = getelementptr inbounds i8, ptr %27, i64 16
  store i64 %.1, ptr %28, align 8
  %29 = load ptr, ptr %0, align 8
  %30 = getelementptr inbounds i8, ptr %29, i64 16
  %31 = load i64, ptr %30, align 8
  %.not76 = icmp eq i64 %31, 0
  br i1 %.not76, label %._crit_edge, label %.lr.ph

.lr.ph:                                           ; preds = %21, %.lr.ph
  %32 = phi ptr [ %42, %.lr.ph ], [ %29, %21 ]
  %33 = phi i64 [ %41, %.lr.ph ], [ 0, %21 ]
  %.074 = phi i32 [ %40, %.lr.ph ], [ 0, %21 ]
  %34 = getelementptr inbounds i8, ptr %32, i64 24
  %35 = getelementptr inbounds [1 x i8], ptr %34, i64 0, i64 %33
  %36 = load i8, ptr %35, align 1
  %37 = zext i8 %36 to i32
  %38 = tail call i32 @tolower(i32 noundef %37) #17
  %39 = trunc i32 %38 to i8
  store i8 %39, ptr %35, align 1
  %40 = add i32 %.074, 1
  %41 = zext i32 %40 to i64
  %42 = load ptr, ptr %0, align 8
  %43 = getelementptr inbounds i8, ptr %42, i64 16
  %44 = load i64, ptr %43, align 8
  %45 = icmp ugt i64 %44, %41
  br i1 %45, label %.lr.ph, label %._crit_edge

._crit_edge:                                      ; preds = %.lr.ph, %21
  %.lcssa73 = phi ptr [ %29, %21 ], [ %42, %.lr.ph ]
  %.lcssa = phi i64 [ 0, %21 ], [ %44, %.lr.ph ]
  %46 = getelementptr inbounds i8, ptr %0, i64 160
  %47 = load ptr, ptr %46, align 8
  %48 = getelementptr inbounds i8, ptr %.lcssa73, i64 24
  %49 = tail call ptr @zend_hash_str_find(ptr noundef %47, ptr noundef nonnull %48, i64 noundef %.lcssa) #16
  %.not65 = icmp eq ptr %49, null
  br i1 %.not65, label %.thread70, label %51

.thread70:                                        ; preds = %._crit_edge
  %50 = getelementptr inbounds i8, ptr %0, i64 120
  store ptr null, ptr %50, align 8
  br label %65

51:                                               ; preds = %._crit_edge
  %52 = load ptr, ptr %49, align 8, !nonnull !4, !noundef !4
  %53 = getelementptr inbounds i8, ptr %0, i64 120
  store ptr %52, ptr %53, align 8
  %54 = load ptr, ptr %0, align 8
  %55 = getelementptr inbounds i8, ptr %54, i64 16
  %56 = load i64, ptr %55, align 8
  %57 = icmp eq i64 %56, 4
  br i1 %57, label %58, label %63

58:                                               ; preds = %51
  %59 = getelementptr inbounds i8, ptr %54, i64 24
  %60 = tail call i32 @strncasecmp(ptr noundef nonnull %59, ptr noundef nonnull @.str.14, i64 noundef 4) #17
  %.not67 = icmp eq i32 %60, 0
  br i1 %.not67, label %61, label %63

61:                                               ; preds = %58
  %62 = getelementptr inbounds i8, ptr %0, i64 152
  store i32 1, ptr %62, align 8
  br label %65

63:                                               ; preds = %58, %51
  %64 = getelementptr inbounds i8, ptr %0, i64 152
  store i32 0, ptr %64, align 8
  br label %65

65:                                               ; preds = %.thread70, %61, %63
  %66 = phi i32 [ 2, %63 ], [ 2, %61 ], [ 0, %.thread70 ]
  %67 = getelementptr inbounds i8, ptr %0, i64 128
  store i32 %66, ptr %67, align 8
  ret void
}